target datalayout = "e-m:e-p270:32:32-p271:32:32-p272:64:64-i64:64-i128:128-f80:128-n8:16:32:64-S128"
target triple = "x86_64-pc-linux-gnu"

%struct.clamscan_cb_data = type { ptr, ptr }

@.str.134 = private unnamed_addr constant [19 x i8] c"(filename not set)\00", align 1
@.str.135 = private unnamed_addr constant [14 x i8] c"%s: %s FOUND\0A\00", align 1

; Function Attrs: nounwind uwtable
define internal void @clamscan_virus_found_cb(i32 noundef %0, ptr noundef %1, ptr noundef %2) #0 {
  %4 = alloca i32, align 4
  %5 = alloca ptr, align 8
  %6 = alloca ptr, align 8
  %7 = alloca ptr, align 8
  %8 = alloca ptr, align 8
  store i32 %0, ptr %4, align 4
  store ptr %1, ptr %5, align 8
  store ptr %2, ptr %6, align 8
  %9 = load ptr, ptr %6, align 8
  store ptr %9, ptr %7, align 8
  %10 = load ptr, ptr %7, align 8
  %11 = icmp eq ptr %10, null
  br i1 %11, label %12, label %13

12:                                               ; preds = %3
  br label %27

13:                                               ; preds = %3
  %14 = load ptr, ptr %7, align 8
  %15 = getelementptr inbounds %struct.clamscan_cb_data, ptr %14, i32 0, i32 1
  %16 = load ptr, ptr %15, align 8
  %17 = icmp ne ptr %16, null
  br i1 %17, label %18, label %22

18:                                               ; preds = %13
  %19 = load ptr, ptr %7, align 8
  %20 = getelementptr inbounds %struct.clamscan_cb_data, ptr %19, i32 0, i32 1
  %21 = load ptr, ptr %20, align 8
  store ptr %21, ptr %8, align 8
  br label %23

22:                                               ; preds = %13
  store ptr @.str.134, ptr %8, align 8
  br label %23

23:                                               ; preds = %22, %18
  %24 = load ptr, ptr %8, align 8
  %25 = load ptr, ptr %5, align 8
  %26 = call i32 (i32, ptr, ...) @logg(i32 noundef 0, ptr noundef @.str.135, ptr noundef %24, ptr noundef %25)
  br label %27

27:                                               ; preds = %23, %12
  ret void
}