; Function Attrs: nounwind uwtable
define internal void @clamscan_virus_found_cb(i32 %0, ptr noundef %1, ptr noundef readonly %2) #0 {
  %4 = icmp eq ptr %2, null
  br i1 %4, label %9, label %5

5:                                                ; preds = %3
  %6 = getelementptr inbounds i8, ptr %2, i64 8
  %7 = load ptr, ptr %6, align 8
  %.not = icmp eq ptr %7, null
  %.str.134. = select i1 %.not, ptr @.str.134, ptr %7
  %8 = tail call i32 (i32, ptr, ...) @logg(i32 noundef 0, ptr noundef nonnull @.str.135, ptr noundef nonnull %.str.134., ptr noundef %1) #21
  br label %9

9:                                                ; preds = %3, %5
  ret void
}